Microchip MPLAB XC8 Compiler V2.32

Linker command line:

-W-3 --edf=C:\Program Files\Microchip\xc8\v2.32\pic\dat\en_msgs.txt -cn \
  -h+dist/default/production\Coursework.X.production.sym \
  --cmf=dist/default/production\Coursework.X.production.cmf -z -Q16F877A \
  -oC:\Users\chazz\AppData\Local\Temp\xcAs57s.4 \
  -Mdist/default/production/Coursework.X.production.map -E1 \
  -ver=XC8 Compiler --acfsm=1493 -ASTACK=0110h-016Fh -pstack=STACK \
  -ACODE=00h-07FFhx4 -ASTRCODE=00h-01FFFh -ASTRING=00h-0FFhx32 \
  -ACONST=00h-0FFhx32 -AENTRY=00h-0FFhx32 -ACOMMON=070h-07Fh \
  -ABANK0=020h-06Fh -ABANK1=0A0h-0EFh -ABANK2=0110h-016Fh \
  -ABANK3=0190h-01EFh -ARAM=020h-06Fh,0A0h-0EFh,0110h-016Fh,0190h-01EFh \
  -AABS1=020h-07Fh,0A0h-0EFh,0110h-016Fh,0190h-01EFh -ASFR0=00h-01Fh \
  -ASFR1=080h-09Fh -ASFR2=0100h-010Fh -ASFR3=0180h-018Fh \
  -ACONFIG=02007h-02007h -DCONFIG=2 -AIDLOC=02000h-02003h -DIDLOC=2 \
  -AEEDATA=00h-0FFh/02100h -peeprom_data=EEDATA -DEEDATA=2 -DCODE=2 \
  -DSTRCODE=2 -DSTRING=2 -DCONST=2 -DENTRY=2 \
  -preset_vec=00h,intentry,init,end_init -ppowerup=CODE -pcinit=CODE \
  -pfunctab=ENTRY -k C:\Users\chazz\AppData\Local\Temp\xcAs57s.o \
  dist/default/production\Coursework.X.production.o 

Object code version is 3.11

Machine type is 16F877A



                Name                               Link     Load   Length Selector   Space Scale
C:\Users\chazz\AppData\Local\Temp\xcAs57s.o
                end_init                              0        0        3        0       0
                config                             2007     2007        1        0       4
dist/default/production\Coursework.X.production.o
                cinit                               7D4      7D4       2C      FA8       0
                config                             2007     2007        1        0       4
                text12                              4A4      4A4       12      948       0
                text11                              4DD      4DD       19      9BA       0
                text10                              485      485        7      90A       0
                text9                               549      549       30      A92       0
                text8                               5AF      5AF       3A      B5E       0
                text7                               48C      48C        8      918       0
                text6                               705      705       CF      E0A       0
                text5                               654      654       B1      CA8       0
                text4                               4F6      4F6       19      9EC       0
                text3                               4C9      4C9       14      992       0
                text2                               50F      50F       1D      A1E       0
                text1                               579      579       36      AF2       0
                maintext                            5E9      5E9       6B      BD2       0
                cstackBANK0                          20       20       1E       20       1
                cstackCOMMON                         70       70        E       70       1
                inittext                            4B6      4B6       13      96C       0
                dataBANK1                            A0       A0       10       A0       1
                dataBANK0                            3E       3E       1D       20       1
                bssBANK0                             5B       5B        D       20       1
                strings                               3        3       14        6       0
                idataBANK1                          494      494       10      928       0
                idataBANK0                          52C      52C       1D      A58       0

TOTAL           Name                               Link     Load   Length     Space
        CLASS   STACK          

        CLASS   CODE           
                end_init                              0        0        3         0
                cinit                               7D4      7D4       2C         0
                text12                              4A4      4A4       12         0
                text11                              4DD      4DD       19         0
                text10                              485      485        7         0
                text9                               549      549       30         0
                text8                               5AF      5AF       3A         0
                text7                               48C      48C        8         0
                text6                               705      705       CF         0
                text5                               654      654       B1         0
                text4                               4F6      4F6       19         0
                text3                               4C9      4C9       14         0
                text2                               50F      50F       1D         0
                text1                               579      579       36         0
                maintext                            5E9      5E9       6B         0
                inittext                            4B6      4B6       13         0
                idataBANK1                          494      494       10         0
                idataBANK0                          52C      52C       1D         0

        CLASS   STRCODE        

        CLASS   STRING         
                strings                               3        3       14         0

        CLASS   CONST          

        CLASS   ENTRY          

        CLASS   COMMON         
                cstackCOMMON                         70       70        E         1

        CLASS   BANK0          
                cstackBANK0                          20       20       1E         1
                dataBANK0                            3E       3E       1D         1
                bssBANK0                             5B       5B        D         1

        CLASS   BANK1          
                dataBANK1                            A0       A0       10         1

        CLASS   BANK2          

        CLASS   BANK3          

        CLASS   RAM            

        CLASS   ABS1           
                abs_s1                               7E       7E        2         1

        CLASS   SFR0           

        CLASS   SFR1           

        CLASS   SFR2           

        CLASS   SFR3           

        CLASS   CONFIG         
                config                             2007     2007        1         4

        CLASS   IDLOC          

        CLASS   EEDATA         



SEGMENTS        Name                           Load    Length   Top    Selector   Space  Class     Delta

                reset_vec                      000000  000003  000003         0       0  CODE        2
                strings                        000003  000014  000017         6       0  STRING      2
                cstackBANK0                    000020  000048  000068        20       1  BANK0       1
                cstackCOMMON                   000070  00000E  00007E        70       1  COMMON      1
                dataBANK1                      0000A0  000010  0000B0        A0       1  BANK1       1
                text10                         000485  000007  00048C       90A       0  CODE        2
                text7                          00048C  000008  000494       918       0  CODE        2
                idataBANK1                     000494  000010  0004A4       928       0  CODE        2
                text12                         0004A4  000012  0004B6       948       0  CODE        2
                inittext                       0004B6  000013  0004C9       96C       0  CODE        2
                text3                          0004C9  000014  0004DD       992       0  CODE        2
                text11                         0004DD  000019  0004F6       9BA       0  CODE        2
                text4                          0004F6  000019  00050F       9EC       0  CODE        2
                text2                          00050F  00001D  00052C       A1E       0  CODE        2
                idataBANK0                     00052C  00001D  000549       A58       0  CODE        2
                text9                          000549  000030  000579       A92       0  CODE        2
                text1                          000579  000036  0005AF       AF2       0  CODE        2
                text8                          0005AF  00003A  0005E9       B5E       0  CODE        2
                maintext                       0005E9  00006B  000654       BD2       0  CODE        2
                text5                          000654  0000B1  000705       CA8       0  CODE        2
                text6                          000705  0000CF  0007D4       E0A       0  CODE        2
                cinit                          0007D4  00002C  000800       FA8       0  CODE        2


UNUSED ADDRESS RANGES

        Name                Unused          Largest block    Delta
        BANK0            0068-006F              8           1
        BANK1            00B0-00EF             40           1
        BANK2            0110-016F             60           1
        BANK3            0190-01EF             60           1
        CODE             0017-0484            46E           2
                         0800-1FFF            800
        CONST            0017-0484            100           2
                         0800-1FFF            100
        EEDATA           2100-21FF            100           2
        ENTRY            0017-0484            100           2
                         0800-1FFF            100
        IDLOC            2000-2003              4           2
        RAM              0068-006F              8           1
                         00B0-00EF             40
                         0110-016F             60
                         0190-01EF             60
        SFR0             0000-001F             20           1
        SFR1             0080-009F             20           1
        SFR2             0100-010F             10           1
        SFR3             0180-018F             10           1
        STACK            0110-016F             60           1
        STRCODE          0017-0484            46E           2
                         0800-1FFF           1800
        STRING           0017-0484            100           2
                         0800-1FFF            100

                                  Symbol Table

?_strlen                      cstackCOMMON 0070
_ADCON1                       (abs)        009F
_PORTD                        (abs)        0008
_RA1                          (abs)        0029
_RA2                          (abs)        002A
_RA3                          (abs)        002B
_RA5                          (abs)        002D
_RB0                          (abs)        0030
_RB2                          (abs)        0032
_RB4                          (abs)        0034
_RB5                          (abs)        0035
_RC5                          (abs)        003D
_RC6                          (abs)        003E
_RC7                          (abs)        003F
_RD7                          (abs)        0047
_RE0                          (abs)        0048
_RE1                          (abs)        0049
_RE2                          (abs)        004A
_TRISA                        (abs)        0085
_TRISC                        (abs)        0087
_TRISD                        (abs)        0088
_TRISE                        (abs)        0089
__Habs1                       abs1         0000
__Hbank0                      bank0        0000
__Hbank1                      bank1        0000
__Hbank2                      bank2        0000
__Hbank3                      bank3        0000
__HbssBANK0                   bssBANK0     0000
__Hcinit                      cinit        0800
__Hclrtext                    clrtext      0000
__Hcode                       code         0000
__Hcommon                     common       0000
__Hconfig                     config       2008
__HcstackBANK0                cstackBANK0  0000
__HcstackCOMMON               cstackCOMMON 0000
__HdataBANK0                  dataBANK0    0000
__HdataBANK1                  dataBANK1    0000
__Heeprom_data                eeprom_data  0000
__Hend_init                   end_init     0003
__Hfunctab                    functab      0000
__HidataBANK0                 idataBANK0   0000
__HidataBANK1                 idataBANK1   0000
__Hinit                       init         0000
__Hinittext                   inittext     0000
__Hintentry                   intentry     0000
__Hmaintext                   maintext     0000
__Hpowerup                    powerup      0000
__Hram                        ram          0000
__Hreset_vec                  reset_vec    0000
__Hsfr0                       sfr0         0000
__Hsfr1                       sfr1         0000
__Hsfr2                       sfr2         0000
__Hsfr3                       sfr3         0000
__Hspace_0                    (abs)        0800
__Hspace_1                    (abs)        00B0
__Hspace_2                    (abs)        0000
__Hspace_3                    (abs)        0000
__Hspace_4                    (abs)        400F
__Hstack                      stack        0000
__Hstrings                    strings      0000
__Htext                       text         0000
__Labs1                       abs1         0000
__Lbank0                      bank0        0000
__Lbank1                      bank1        0000
__Lbank2                      bank2        0000
__Lbank3                      bank3        0000
__LbssBANK0                   bssBANK0     0000
__Lcinit                      cinit        07D4
__Lclrtext                    clrtext      0000
__Lcode                       code         0000
__Lcommon                     common       0000
__Lconfig                     config       0000
__LcstackBANK0                cstackBANK0  0000
__LcstackCOMMON               cstackCOMMON 0000
__LdataBANK0                  dataBANK0    0000
__LdataBANK1                  dataBANK1    0000
__Leeprom_data                eeprom_data  0000
__Lend_init                   end_init     0000
__Lfunctab                    functab      0000
__LidataBANK0                 idataBANK0   0000
__LidataBANK1                 idataBANK1   0000
__Linit                       init         0000
__Linittext                   inittext     0000
__Lintentry                   intentry     0000
__Lmaintext                   maintext     0000
__Lpowerup                    powerup      0000
__Lram                        ram          0000
__Lreset_vec                  reset_vec    0000
__Lsfr0                       sfr0         0000
__Lsfr1                       sfr1         0000
__Lsfr2                       sfr2         0000
__Lsfr3                       sfr3         0000
__Lspace_0                    (abs)        0000
__Lspace_1                    (abs)        0000
__Lspace_2                    (abs)        0000
__Lspace_3                    (abs)        0000
__Lspace_4                    (abs)        0000
__Lstack                      stack        0000
__Lstrings                    strings      0000
__Ltext                       text         0000
__S0                          (abs)        0800
__S1                          (abs)        00B0
__S2                          (abs)        0000
__S3                          (abs)        0000
___int_sp                     stack        0000
___latbits                    (abs)        0002
___sp                         stack        0000
___stackhi                    (abs)        0000
___stacklo                    (abs)        0000
__end_of__initialization      cinit        07FC
__end_of__stringtab           strings      0009
__end_of_clear_display        text10       048C
__end_of_delay                text12       04B6
__end_of_delay_xy             text9        0579
__end_of_init_display         text8        05E9
__end_of_init_keyboard        text7        0494
__end_of_main                 maintext     0654
__end_of_move_cursor          text5        0705
__end_of_read_keys            text6        07D4
__end_of_strlen               text2        052C
__end_of_write_char_at_pos    text3        04DD
__end_of_write_cmd            text11       04F6
__end_of_write_data           text4        050F
__end_of_write_string_at_pos  text1        05AF
__initialization              cinit        07D4
__pbssBANK0                   bssBANK0     005B
__pcstackBANK0                cstackBANK0  0020
__pcstackCOMMON               cstackCOMMON 0070
__pdataBANK0                  dataBANK0    003E
__pdataBANK1                  dataBANK1    00A0
__pidataBANK0                 idataBANK0   052C
__pidataBANK1                 idataBANK1   0494
__pmaintext                   maintext     05E9
__pstrings                    strings      0003
__ptext1                      text1        0579
__ptext10                     text10       0485
__ptext11                     text11       04DD
__ptext12                     text12       04A4
__ptext2                      text2        050F
__ptext3                      text3        04C9
__ptext4                      text4        04F6
__ptext5                      text5        0654
__ptext6                      text6        0705
__ptext7                      text7        048C
__ptext8                      text8        05AF
__ptext9                      text9        0549
__size_of_clear_display       (abs)        0000
__size_of_delay               (abs)        0000
__size_of_delay_xy            (abs)        0000
__size_of_init_display        (abs)        0000
__size_of_init_keyboard       (abs)        0000
__size_of_main                (abs)        0000
__size_of_move_cursor         (abs)        0000
__size_of_read_keys           (abs)        0000
__size_of_strlen              (abs)        0000
__size_of_write_char_at_pos   (abs)        0000
__size_of_write_cmd           (abs)        0000
__size_of_write_data          (abs)        0000
__size_of_write_string_at_pos (abs)        0000
__stringbase                  strings      0008
__stringtab                   strings      0003
_clear_display                text10       0485
_delay                        text12       04A4
_delay_xy                     text9        0549
_init_display                 text8        05AF
_init_keyboard                text7        048C
_main                         maintext     05E9
_move_cursor                  text5        0654
_read_keys                    text6        0705
_strlen                       text2        050F
_tmp                          bssBANK0     005F
_write_char_at_pos            text3        04C9
_write_cmd                    text11       04DD
_write_data                   text4        04F6
_write_string_at_pos          text1        0579
btemp                         (abs)        007E
delay@i                       cstackCOMMON 0070
delay_xy@i                    cstackCOMMON 0075
delay_xy@j                    cstackCOMMON 0077
delay_xy@x                    cstackCOMMON 0070
delay_xy@y                    cstackCOMMON 0072
end_of_initialization         cinit        07FC
getHour@F1086                 dataBANK0    0052
getMins@F1090                 dataBANK0    004F
getSecs@F1094                 dataBANK0    004C
init_fetch0                   inittext     04B6
init_ram0                     inittext     04BA
intlevel0                     functab      0000
intlevel1                     functab      0000
intlevel2                     functab      0000
intlevel3                     functab      0000
intlevel4                     functab      0000
intlevel5                     functab      0000
main@currentPos               cstackBANK0  003C
main@test                     cstackBANK0  003B
move_cursor@i                 cstackBANK0  0020
move_cursor@i_124             cstackBANK0  0022
move_cursor@position          cstackCOMMON 0079
read_keys@F883                dataBANK1    00A0
read_keys@F885                dataBANK0    003E
read_keys@i                   cstackBANK0  0030
read_keys@keypad              cstackBANK0  0020
read_keys@swIndexes           cstackBANK0  0032
reset_vec                     reset_vec    0000
start                         init         0000
start_initialization          cinit        07D4
strlen@cp                     cstackCOMMON 0074
strlen@s                      cstackCOMMON 0073
write_char_at_pos@character   cstackBANK0  0026
write_char_at_pos@position    cstackBANK0  0024
write_cmd@cmd                 cstackCOMMON 0072
write_data@data               cstackCOMMON 0072
write_string_at_pos@i         cstackCOMMON 007C
write_string_at_pos@position  cstackBANK0  0024
write_string_at_pos@text      cstackBANK0  0026
wtemp0                        (abs)        007E


MODULE INFORMATION

Module		Function		Class		Link	Load	Size
Delay.c
		_delay         		CODE           	04A4	0000	18
		_delay_xy      		CODE           	0549	0000	48

Delay.c estimated size: 66

C:\Program Files\Microchip\xc8\v2.32\pic\sources\c90\common\strlen.c
		_strlen        		CODE           	050F	0000	29

C:\Program Files\Microchip\xc8\v2.32\pic\sources\c90\common\strlen.c estimated size: 29

LcdDriver.c
		_write_string_at_pos		CODE           	0579	0000	54
		_init_display  		CODE           	05AF	0000	58
		_write_data    		CODE           	04F6	0000	25
		_move_cursor   		CODE           	0654	0000	177
		_clear_display 		CODE           	0485	0000	7
		_write_cmd     		CODE           	04DD	0000	25
		_write_char_at_pos		CODE           	04C9	0000	20

LcdDriver.c estimated size: 366

shared
		__stringtab    		STRING         	0003	0000	6
		__initialization		CODE           	07D4	0000	40

shared estimated size: 46

KeyboardDriver.c
		_init_keyboard 		CODE           	048C	0000	8
		_read_keys     		CODE           	0705	0000	207

KeyboardDriver.c estimated size: 215

main.c
		_main          		CODE           	05E9	0000	107

main.c estimated size: 107

